target datalayout = "e-m:e-p270:32:32-p271:32:32-p272:64:64-i64:64-i128:128-f80:128-n8:16:32:64-S128"
target triple = "x86_64-pc-linux-gnu"

@.str = private unnamed_addr constant [2 x i8] c"\0A\00", align 1
@.str.19 = private unnamed_addr constant [34 x i8] c"    qbfsat [options] [selection]\0A\00", align 1
@.str.20 = private unnamed_addr constant [74 x i8] c"This command solves an \22exists-forall\22 2QBF-SAT problem defined over the\0A\00", align 1
@.str.21 = private unnamed_addr constant [79 x i8] c"currently selected module. Existentially-quantified variables are declared by\0A\00", align 1
@.str.22 = private unnamed_addr constant [71 x i8] c"assigning a wire \22$anyconst\22. Universally-quantified variables may be\0A\00", align 1
@.str.23 = private unnamed_addr constant [80 x i8] c"explicitly declared by assigning a wire \22$allconst\22, but module inputs will be\0A\00", align 1
@.str.24 = private unnamed_addr constant [57 x i8] c"treated as universally-quantified variables by default.\0A\00", align 1
@.str.25 = private unnamed_addr constant [16 x i8] c"    -nocleanup\0A\00", align 1
@.str.26 = private unnamed_addr constant [78 x i8] c"        Do not delete temporary files and directories. Useful for debugging.\0A\00", align 1
@.str.27 = private unnamed_addr constant [29 x i8] c"    -dump-final-smt2 <file>\0A\00", align 1
@.str.28 = private unnamed_addr constant [54 x i8] c"        Pass the --dump-smt2 option to yosys-smtbmc.\0A\00", align 1
@.str.29 = private unnamed_addr constant [21 x i8] c"    -assume-outputs\0A\00", align 1
@.str.30 = private unnamed_addr constant [80 x i8] c"        Add an \22$assume\22 cell for the conjunction of all one-bit module output\0A\00", align 1
@.str.31 = private unnamed_addr constant [16 x i8] c"        wires.\0A\00", align 1
@.str.32 = private unnamed_addr constant [31 x i8] c"    -assume-negative-polarity\0A\00", align 1
@.str.33 = private unnamed_addr constant [80 x i8] c"        When adding $assume cells for one-bit module output wires, assume they\0A\00", align 1
@.str.34 = private unnamed_addr constant [82 x i8] c"        are negative polarity signals and should always be low, for example like\0A\00", align 1
@.str.35 = private unnamed_addr constant [54 x i8] c"        the miters created with the `miter` command.\0A\00", align 1
@.str.36 = private unnamed_addr constant [17 x i8] c"    -nooptimize\0A\00", align 1
@.str.37 = private unnamed_addr constant [68 x i8] c"        Ignore \22\\minimize\22 and \22\\maximize\22 attributes, do not emit\0A\00", align 1
@.str.38 = private unnamed_addr constant [78 x i8] c"        \22(maximize)\22 or \22(minimize)\22 in the SMT-LIBv2, and generally make no\0A\00", align 1
@.str.39 = private unnamed_addr constant [39 x i8] c"        attempt to optimize anything.\0A\00", align 1
@.str.40 = private unnamed_addr constant [18 x i8] c"    -nobisection\0A\00", align 1
@.str.41 = private unnamed_addr constant [76 x i8] c"        If a wire is marked with the \22\\minimize\22 or \22\\maximize\22 attribute,\0A\00", align 1
@.str.42 = private unnamed_addr constant [81 x i8] c"        do not attempt to optimize that value with the default iterated solving\0A\00", align 1
@.str.43 = private unnamed_addr constant [77 x i8] c"        and threshold bisection approach. Instead, have yosys-smtbmc emit a\0A\00", align 1
@.str.44 = private unnamed_addr constant [74 x i8] c"        \22(minimize)\22 or \22(maximize)\22 command in the SMT-LIBv2 output and\0A\00", align 1
@.str.45 = private unnamed_addr constant [81 x i8] c"        hope that the solver supports optimizing quantified bitvector problems.\0A\00", align 1
@.str.46 = private unnamed_addr constant [22 x i8] c"    -solver <solver>\0A\00", align 1
@.str.47 = private unnamed_addr constant [71 x i8] c"        Use a particular solver. Choose one of: \22z3\22, \22yices\22, \22cvc4\22\0A\00", align 1
@.str.48 = private unnamed_addr constant [38 x i8] c"        and \22cvc5\22. (default: yices)\0A\00", align 1
@.str.49 = private unnamed_addr constant [35 x i8] c"    -solver-option <name> <value>\0A\00", align 1
@.str.50 = private unnamed_addr constant [72 x i8] c"        Set the specified solver option in the SMT-LIBv2 problem file.\0A\00", align 1
@.str.51 = private unnamed_addr constant [22 x i8] c"    -timeout <value>\0A\00", align 1
@.str.52 = private unnamed_addr constant [51 x i8] c"        Set the per-iteration timeout in seconds.\0A\00", align 1
@.str.53 = private unnamed_addr constant [31 x i8] c"        (default: no timeout)\0A\00", align 1
@.str.54 = private unnamed_addr constant [19 x i8] c"    -O0, -O0, -O0\0A\00", align 1
@.str.55 = private unnamed_addr constant [80 x i8] c"        Control the use of ABC to simplify the QBF-SAT problem before solving.\0A\00", align 1
@.str.56 = private unnamed_addr constant [10 x i8] c"    -sat\0A\00", align 1
@.str.57 = private unnamed_addr constant [64 x i8] c"        Generate an error if the solver does not return \22sat\22.\0A\00", align 1
@.str.58 = private unnamed_addr constant [12 x i8] c"    -unsat\0A\00", align 1
@.str.59 = private unnamed_addr constant [66 x i8] c"        Generate an error if the solver does not return \22unsat\22.\0A\00", align 1
@.str.60 = private unnamed_addr constant [18 x i8] c"    -show-smtbmc\0A\00", align 1
@.str.61 = private unnamed_addr constant [45 x i8] c"        Print the output from yosys-smtbmc.\0A\00", align 1
@.str.62 = private unnamed_addr constant [17 x i8] c"    -specialize\0A\00", align 1
@.str.63 = private unnamed_addr constant [79 x i8] c"        If the problem is satisfiable, replace each \22$anyconst\22 cell with its\0A\00", align 1
@.str.64 = private unnamed_addr constant [77 x i8] c"        corresponding constant value from the model produced by the solver.\0A\00", align 1
@.str.65 = private unnamed_addr constant [43 x i8] c"    -specialize-from-file <solution file>\0A\00", align 1
@.str.66 = private unnamed_addr constant [73 x i8] c"        Do not run the solver, but instead only attempt to replace each\0A\00", align 1
@.str.67 = private unnamed_addr constant [79 x i8] c"        \22$anyconst\22 cell in the current module with a constant value provided\0A\00", align 1
@.str.68 = private unnamed_addr constant [32 x i8] c"        by the specified file.\0A\00", align 1
@.str.69 = private unnamed_addr constant [37 x i8] c"    -write-solution <solution file>\0A\00", align 1
@.str.70 = private unnamed_addr constant [79 x i8] c"        If the problem is satisfiable, write the corresponding constant value\0A\00", align 1
@.str.71 = private unnamed_addr constant [80 x i8] c"        for each \22$anyconst\22 cell from the model produced by the solver to the\0A\00", align 1
@.str.72 = private unnamed_addr constant [25 x i8] c"        specified file.\0A\00", align 1

; Function Attrs: mustprogress uwtable
define internal void @_ZN12_GLOBAL__N_110QbfSatPass4helpEv(ptr noundef nonnull align 8 dereferenceable(104) %0) unnamed_addr #4 align 2 {
  %2 = alloca ptr, align 8
  store ptr %0, ptr %2, align 8
  call void (ptr, ...) @_ZN5Yosys3logEPKcz(ptr noundef @.str)
  call void (ptr, ...) @_ZN5Yosys3logEPKcz(ptr noundef @.str.19)
  call void (ptr, ...) @_ZN5Yosys3logEPKcz(ptr noundef @.str)
  call void (ptr, ...) @_ZN5Yosys3logEPKcz(ptr noundef @.str.20)
  call void (ptr, ...) @_ZN5Yosys3logEPKcz(ptr noundef @.str.21)
  call void (ptr, ...) @_ZN5Yosys3logEPKcz(ptr noundef @.str.22)
  call void (ptr, ...) @_ZN5Yosys3logEPKcz(ptr noundef @.str.23)
  call void (ptr, ...) @_ZN5Yosys3logEPKcz(ptr noundef @.str.24)
  call void (ptr, ...) @_ZN5Yosys3logEPKcz(ptr noundef @.str)
  call void (ptr, ...) @_ZN5Yosys3logEPKcz(ptr noundef @.str.25)
  call void (ptr, ...) @_ZN5Yosys3logEPKcz(ptr noundef @.str.26)
  call void (ptr, ...) @_ZN5Yosys3logEPKcz(ptr noundef @.str)
  call void (ptr, ...) @_ZN5Yosys3logEPKcz(ptr noundef @.str.27)
  call void (ptr, ...) @_ZN5Yosys3logEPKcz(ptr noundef @.str.28)
  call void (ptr, ...) @_ZN5Yosys3logEPKcz(ptr noundef @.str)
  call void (ptr, ...) @_ZN5Yosys3logEPKcz(ptr noundef @.str.29)
  call void (ptr, ...) @_ZN5Yosys3logEPKcz(ptr noundef @.str.30)
  call void (ptr, ...) @_ZN5Yosys3logEPKcz(ptr noundef @.str.31)
  call void (ptr, ...) @_ZN5Yosys3logEPKcz(ptr noundef @.str)
  call void (ptr, ...) @_ZN5Yosys3logEPKcz(ptr noundef @.str.32)
  call void (ptr, ...) @_ZN5Yosys3logEPKcz(ptr noundef @.str.33)
  call void (ptr, ...) @_ZN5Yosys3logEPKcz(ptr noundef @.str.34)
  call void (ptr, ...) @_ZN5Yosys3logEPKcz(ptr noundef @.str.35)
  call void (ptr, ...) @_ZN5Yosys3logEPKcz(ptr noundef @.str)
  call void (ptr, ...) @_ZN5Yosys3logEPKcz(ptr noundef @.str.36)
  call void (ptr, ...) @_ZN5Yosys3logEPKcz(ptr noundef @.str.37)
  call void (ptr, ...) @_ZN5Yosys3logEPKcz(ptr noundef @.str.38)
  call void (ptr, ...) @_ZN5Yosys3logEPKcz(ptr noundef @.str.39)
  call void (ptr, ...) @_ZN5Yosys3logEPKcz(ptr noundef @.str)
  call void (ptr, ...) @_ZN5Yosys3logEPKcz(ptr noundef @.str.40)
  call void (ptr, ...) @_ZN5Yosys3logEPKcz(ptr noundef @.str.41)
  call void (ptr, ...) @_ZN5Yosys3logEPKcz(ptr noundef @.str.42)
  call void (ptr, ...) @_ZN5Yosys3logEPKcz(ptr noundef @.str.43)
  call void (ptr, ...) @_ZN5Yosys3logEPKcz(ptr noundef @.str.44)
  call void (ptr, ...) @_ZN5Yosys3logEPKcz(ptr noundef @.str.45)
  call void (ptr, ...) @_ZN5Yosys3logEPKcz(ptr noundef @.str)
  call void (ptr, ...) @_ZN5Yosys3logEPKcz(ptr noundef @.str.46)
  call void (ptr, ...) @_ZN5Yosys3logEPKcz(ptr noundef @.str.47)
  call void (ptr, ...) @_ZN5Yosys3logEPKcz(ptr noundef @.str.48)
  call void (ptr, ...) @_ZN5Yosys3logEPKcz(ptr noundef @.str)
  call void (ptr, ...) @_ZN5Yosys3logEPKcz(ptr noundef @.str.49)
  call void (ptr, ...) @_ZN5Yosys3logEPKcz(ptr noundef @.str.50)
  call void (ptr, ...) @_ZN5Yosys3logEPKcz(ptr noundef @.str)
  call void (ptr, ...) @_ZN5Yosys3logEPKcz(ptr noundef @.str.51)
  call void (ptr, ...) @_ZN5Yosys3logEPKcz(ptr noundef @.str.52)
  call void (ptr, ...) @_ZN5Yosys3logEPKcz(ptr noundef @.str.53)
  call void (ptr, ...) @_ZN5Yosys3logEPKcz(ptr noundef @.str)
  call void (ptr, ...) @_ZN5Yosys3logEPKcz(ptr noundef @.str.54)
  call void (ptr, ...) @_ZN5Yosys3logEPKcz(ptr noundef @.str.55)
  call void (ptr, ...) @_ZN5Yosys3logEPKcz(ptr noundef @.str)
  call void (ptr, ...) @_ZN5Yosys3logEPKcz(ptr noundef @.str.56)
  call void (ptr, ...) @_ZN5Yosys3logEPKcz(ptr noundef @.str.57)
  call void (ptr, ...) @_ZN5Yosys3logEPKcz(ptr noundef @.str)
  call void (ptr, ...) @_ZN5Yosys3logEPKcz(ptr noundef @.str.58)
  call void (ptr, ...) @_ZN5Yosys3logEPKcz(ptr noundef @.str.59)
  call void (ptr, ...) @_ZN5Yosys3logEPKcz(ptr noundef @.str)
  call void (ptr, ...) @_ZN5Yosys3logEPKcz(ptr noundef @.str.60)
  call void (ptr, ...) @_ZN5Yosys3logEPKcz(ptr noundef @.str.61)
  call void (ptr, ...) @_ZN5Yosys3logEPKcz(ptr noundef @.str)
  call void (ptr, ...) @_ZN5Yosys3logEPKcz(ptr noundef @.str.62)
  call void (ptr, ...) @_ZN5Yosys3logEPKcz(ptr noundef @.str.63)
  call void (ptr, ...) @_ZN5Yosys3logEPKcz(ptr noundef @.str.64)
  call void (ptr, ...) @_ZN5Yosys3logEPKcz(ptr noundef @.str)
  call void (ptr, ...) @_ZN5Yosys3logEPKcz(ptr noundef @.str.65)
  call void (ptr, ...) @_ZN5Yosys3logEPKcz(ptr noundef @.str.66)
  call void (ptr, ...) @_ZN5Yosys3logEPKcz(ptr noundef @.str.67)
  call void (ptr, ...) @_ZN5Yosys3logEPKcz(ptr noundef @.str.68)
  call void (ptr, ...) @_ZN5Yosys3logEPKcz(ptr noundef @.str)
  call void (ptr, ...) @_ZN5Yosys3logEPKcz(ptr noundef @.str.69)
  call void (ptr, ...) @_ZN5Yosys3logEPKcz(ptr noundef @.str.70)
  call void (ptr, ...) @_ZN5Yosys3logEPKcz(ptr noundef @.str.71)
  call void (ptr, ...) @_ZN5Yosys3logEPKcz(ptr noundef @.str.72)
  call void (ptr, ...) @_ZN5Yosys3logEPKcz(ptr noundef @.str)
  ret void
}